; Function Attrs: mustprogress nounwind uwtable
define dso_local void @_ZN3net15P256KeyExchangeD0Ev(ptr noundef nonnull align 8 dereferenceable(81) %this) unnamed_addr #2 align 2 personality ptr @__gxx_personality_v0 {
entry:
  store ptr getelementptr inbounds ({ [8 x ptr] }, ptr @_ZTVN3net15P256KeyExchangeE, i64 0, i32 0, i64 2), ptr %this, align 8
  %private_key_.i = getelementptr inbounds i8, ptr %this, i64 8
  %0 = load ptr, ptr %private_key_.i, align 8
  %cmp.not.i.i = icmp eq ptr %0, null
  br i1 %cmp.not.i.i, label %_ZN3net15P256KeyExchangeD2Ev.exit, label %if.then.i.i

if.then.i.i:                                      ; preds = %entry
  invoke void @EC_KEY_free(ptr noundef nonnull %0)
          to label %_ZN3net15P256KeyExchangeD2Ev.exit unwind label %terminate.lpad.i.i

terminate.lpad.i.i:                               ; preds = %if.then.i.i
  %1 = landingpad { ptr, i32 }
          catch ptr null
  %2 = extractvalue { ptr, i32 } %1, 0
  tail call void @__clang_call_terminate(ptr %2) #10
  unreachable

_ZN3net15P256KeyExchangeD2Ev.exit:                ; preds = %entry, %if.then.i.i
  tail call void @_ZdlPv(ptr noundef nonnull %this) #11
  ret void
}